target datalayout = "e-m:e-p270:32:32-p271:32:32-p272:64:64-i64:64-i128:128-f80:128-n8:16:32:64-S128"
target triple = "x86_64-pc-linux-gnu"

%struct.FunctionCallInfoBaseData = type { ptr, ptr, ptr, i32, i8, i16, [0 x %struct.NullableDatum] }
%struct.NullableDatum = type { i64, i8 }
%struct.pg_uuid_t = type { [16 x i8] }

; Function Attrs: inlinehint nounwind uwtable
define internal i64 @Int64GetDatum(i64 noundef %0) #2 {
  %2 = alloca i64, align 8
  store i64 %0, ptr %2, align 8
  %3 = load i64, ptr %2, align 8
  ret i64 %3
}

; Function Attrs: inlinehint nounwind uwtable
define internal ptr @DatumGetPointer(i64 noundef %0) #2 {
  %2 = alloca i64, align 8
  store i64 %0, ptr %2, align 8
  %3 = load i64, ptr %2, align 8
  %4 = inttoptr i64 %3 to ptr
  ret ptr %4
}

; Function Attrs: inlinehint nounwind uwtable
define internal i64 @TimestampTzGetDatum(i64 noundef %0) #2 {
  %2 = alloca i64, align 8
  store i64 %0, ptr %2, align 8
  %3 = load i64, ptr %2, align 8
  %4 = call i64 @Int64GetDatum(i64 noundef %3)
  ret i64 %4
}

; Function Attrs: inlinehint nounwind uwtable
define internal ptr @DatumGetUUIDP(i64 noundef %0) #2 {
  %2 = alloca i64, align 8
  store i64 %0, ptr %2, align 8
  %3 = load i64, ptr %2, align 8
  %4 = call ptr @DatumGetPointer(i64 noundef %3)
  ret ptr %4
}

; Function Attrs: nounwind uwtable
define dso_local i64 @uuid_extract_timestamp(ptr noundef %0) #0 {
  %2 = alloca i64, align 8
  %3 = alloca ptr, align 8
  %4 = alloca ptr, align 8
  %5 = alloca i32, align 4
  %6 = alloca i64, align 8
  %7 = alloca i64, align 8
  %8 = alloca i32, align 4
  store ptr %0, ptr %3, align 8
  call void @llvm.lifetime.start.p0(i64 8, ptr %4) #10
  %9 = load ptr, ptr %3, align 8
  %10 = getelementptr inbounds nuw %struct.FunctionCallInfoBaseData, ptr %9, i32 0, i32 6
  %11 = getelementptr inbounds [0 x %struct.NullableDatum], ptr %10, i64 0, i64 0
  %12 = getelementptr inbounds nuw %struct.NullableDatum, ptr %11, i32 0, i32 0
  %13 = load i64, ptr %12, align 8
  %14 = call ptr @DatumGetUUIDP(i64 noundef %13)
  store ptr %14, ptr %4, align 8
  call void @llvm.lifetime.start.p0(i64 4, ptr %5) #10
  call void @llvm.lifetime.start.p0(i64 8, ptr %6) #10
  call void @llvm.lifetime.start.p0(i64 8, ptr %7) #10
  %15 = load ptr, ptr %4, align 8
  %16 = getelementptr inbounds nuw %struct.pg_uuid_t, ptr %15, i32 0, i32 0
  %17 = getelementptr inbounds [16 x i8], ptr %16, i64 0, i64 8
  %18 = load i8, ptr %17, align 1
  %19 = zext i8 %18 to i32
  %20 = and i32 %19, 192
  %21 = icmp ne i32 %20, 128
  br i1 %21, label %22, label %28

22:                                               ; preds = %1
  br label %23

23:                                               ; preds = %22
  %24 = load ptr, ptr %3, align 8
  %25 = getelementptr inbounds nuw %struct.FunctionCallInfoBaseData, ptr %24, i32 0, i32 4
  store i8 1, ptr %25, align 4
  store i64 0, ptr %2, align 8
  store i32 1, ptr %8, align 4
  br label %153

26:                                               ; No predecessors!
  br label %27

27:                                               ; preds = %26
  br label %28

28:                                               ; preds = %27, %1
  %29 = load ptr, ptr %4, align 8
  %30 = getelementptr inbounds nuw %struct.pg_uuid_t, ptr %29, i32 0, i32 0
  %31 = getelementptr inbounds [16 x i8], ptr %30, i64 0, i64 6
  %32 = load i8, ptr %31, align 1
  %33 = zext i8 %32 to i32
  %34 = ashr i32 %33, 4
  store i32 %34, ptr %5, align 4
  %35 = load i32, ptr %5, align 4
  %36 = icmp eq i32 %35, 1
  br i1 %36, label %37, label %98

37:                                               ; preds = %28
  %38 = load ptr, ptr %4, align 8
  %39 = getelementptr inbounds nuw %struct.pg_uuid_t, ptr %38, i32 0, i32 0
  %40 = getelementptr inbounds [16 x i8], ptr %39, i64 0, i64 0
  %41 = load i8, ptr %40, align 1
  %42 = zext i8 %41 to i64
  %43 = shl i64 %42, 24
  %44 = load ptr, ptr %4, align 8
  %45 = getelementptr inbounds nuw %struct.pg_uuid_t, ptr %44, i32 0, i32 0
  %46 = getelementptr inbounds [16 x i8], ptr %45, i64 0, i64 1
  %47 = load i8, ptr %46, align 1
  %48 = zext i8 %47 to i64
  %49 = shl i64 %48, 16
  %50 = add i64 %43, %49
  %51 = load ptr, ptr %4, align 8
  %52 = getelementptr inbounds nuw %struct.pg_uuid_t, ptr %51, i32 0, i32 0
  %53 = getelementptr inbounds [16 x i8], ptr %52, i64 0, i64 2
  %54 = load i8, ptr %53, align 1
  %55 = zext i8 %54 to i64
  %56 = shl i64 %55, 8
  %57 = add i64 %50, %56
  %58 = load ptr, ptr %4, align 8
  %59 = getelementptr inbounds nuw %struct.pg_uuid_t, ptr %58, i32 0, i32 0
  %60 = getelementptr inbounds [16 x i8], ptr %59, i64 0, i64 3
  %61 = load i8, ptr %60, align 1
  %62 = zext i8 %61 to i64
  %63 = add i64 %57, %62
  %64 = load ptr, ptr %4, align 8
  %65 = getelementptr inbounds nuw %struct.pg_uuid_t, ptr %64, i32 0, i32 0
  %66 = getelementptr inbounds [16 x i8], ptr %65, i64 0, i64 4
  %67 = load i8, ptr %66, align 1
  %68 = zext i8 %67 to i64
  %69 = shl i64 %68, 40
  %70 = add i64 %63, %69
  %71 = load ptr, ptr %4, align 8
  %72 = getelementptr inbounds nuw %struct.pg_uuid_t, ptr %71, i32 0, i32 0
  %73 = getelementptr inbounds [16 x i8], ptr %72, i64 0, i64 5
  %74 = load i8, ptr %73, align 1
  %75 = zext i8 %74 to i64
  %76 = shl i64 %75, 32
  %77 = add i64 %70, %76
  %78 = load ptr, ptr %4, align 8
  %79 = getelementptr inbounds nuw %struct.pg_uuid_t, ptr %78, i32 0, i32 0
  %80 = getelementptr inbounds [16 x i8], ptr %79, i64 0, i64 6
  %81 = load i8, ptr %80, align 1
  %82 = zext i8 %81 to i64
  %83 = and i64 %82, 15
  %84 = shl i64 %83, 56
  %85 = add i64 %77, %84
  %86 = load ptr, ptr %4, align 8
  %87 = getelementptr inbounds nuw %struct.pg_uuid_t, ptr %86, i32 0, i32 0
  %88 = getelementptr inbounds [16 x i8], ptr %87, i64 0, i64 7
  %89 = load i8, ptr %88, align 1
  %90 = zext i8 %89 to i64
  %91 = shl i64 %90, 48
  %92 = add i64 %85, %91
  store i64 %92, ptr %6, align 8
  %93 = load i64, ptr %6, align 8
  %94 = udiv i64 %93, 10
  %95 = sub i64 %94, 13165977600000000
  store i64 %95, ptr %7, align 8
  %96 = load i64, ptr %7, align 8
  %97 = call i64 @TimestampTzGetDatum(i64 noundef %96)
  store i64 %97, ptr %2, align 8
  store i32 1, ptr %8, align 4
  br label %153

98:                                               ; preds = %28
  %99 = load i32, ptr %5, align 4
  %100 = icmp eq i32 %99, 7
  br i1 %100, label %101, label %147

101:                                              ; preds = %98
  %102 = load ptr, ptr %4, align 8
  %103 = getelementptr inbounds nuw %struct.pg_uuid_t, ptr %102, i32 0, i32 0
  %104 = getelementptr inbounds [16 x i8], ptr %103, i64 0, i64 5
  %105 = load i8, ptr %104, align 1
  %106 = zext i8 %105 to i64
  %107 = load ptr, ptr %4, align 8
  %108 = getelementptr inbounds nuw %struct.pg_uuid_t, ptr %107, i32 0, i32 0
  %109 = getelementptr inbounds [16 x i8], ptr %108, i64 0, i64 4
  %110 = load i8, ptr %109, align 1
  %111 = zext i8 %110 to i64
  %112 = shl i64 %111, 8
  %113 = add i64 %106, %112
  %114 = load ptr, ptr %4, align 8
  %115 = getelementptr inbounds nuw %struct.pg_uuid_t, ptr %114, i32 0, i32 0
  %116 = getelementptr inbounds [16 x i8], ptr %115, i64 0, i64 3
  %117 = load i8, ptr %116, align 1
  %118 = zext i8 %117 to i64
  %119 = shl i64 %118, 16
  %120 = add i64 %113, %119
  %121 = load ptr, ptr %4, align 8
  %122 = getelementptr inbounds nuw %struct.pg_uuid_t, ptr %121, i32 0, i32 0
  %123 = getelementptr inbounds [16 x i8], ptr %122, i64 0, i64 2
  %124 = load i8, ptr %123, align 1
  %125 = zext i8 %124 to i64
  %126 = shl i64 %125, 24
  %127 = add i64 %120, %126
  %128 = load ptr, ptr %4, align 8
  %129 = getelementptr inbounds nuw %struct.pg_uuid_t, ptr %128, i32 0, i32 0
  %130 = getelementptr inbounds [16 x i8], ptr %129, i64 0, i64 1
  %131 = load i8, ptr %130, align 1
  %132 = zext i8 %131 to i64
  %133 = shl i64 %132, 32
  %134 = add i64 %127, %133
  %135 = load ptr, ptr %4, align 8
  %136 = getelementptr inbounds nuw %struct.pg_uuid_t, ptr %135, i32 0, i32 0
  %137 = getelementptr inbounds [16 x i8], ptr %136, i64 0, i64 0
  %138 = load i8, ptr %137, align 1
  %139 = zext i8 %138 to i64
  %140 = shl i64 %139, 40
  %141 = add i64 %134, %140
  store i64 %141, ptr %6, align 8
  %142 = load i64, ptr %6, align 8
  %143 = mul i64 %142, 1000
  %144 = sub i64 %143, 946684800000000
  store i64 %144, ptr %7, align 8
  %145 = load i64, ptr %7, align 8
  %146 = call i64 @TimestampTzGetDatum(i64 noundef %145)
  store i64 %146, ptr %2, align 8
  store i32 1, ptr %8, align 4
  br label %153

147:                                              ; preds = %98
  br label %148

148:                                              ; preds = %147
  %149 = load ptr, ptr %3, align 8
  %150 = getelementptr inbounds nuw %struct.FunctionCallInfoBaseData, ptr %149, i32 0, i32 4
  store i8 1, ptr %150, align 4
  store i64 0, ptr %2, align 8
  store i32 1, ptr %8, align 4
  br label %153

151:                                              ; No predecessors!
  br label %152

152:                                              ; preds = %151
  store i32 0, ptr %8, align 4
  br label %153

153:                                              ; preds = %152, %148, %101, %37, %23
  call void @llvm.lifetime.end.p0(i64 8, ptr %7) #10
  call void @llvm.lifetime.end.p0(i64 8, ptr %6) #10
  call void @llvm.lifetime.end.p0(i64 4, ptr %5) #10
  call void @llvm.lifetime.end.p0(i64 8, ptr %4) #10
  %154 = load i32, ptr %8, align 4
  switch i32 %154, label %157 [
    i32 0, label %155
    i32 1, label %155
  ]

155:                                              ; preds = %153, %153
  %156 = load i64, ptr %2, align 8
  ret i64 %156

157:                                              ; preds = %153
  unreachable
}