; Function Attrs: mustprogress nofree norecurse nosync nounwind willreturn memory(read, argmem: readwrite, inaccessiblemem: none) uwtable
define dso_local range(i64 -13165977600000000, 280528291910655001) i64 @uuid_extract_timestamp(ptr noundef captures(none) %0) local_unnamed_addr #6 {
  %2 = getelementptr inbounds nuw i8, ptr %0, i64 32
  %3 = load i64, ptr %2, align 8
  %4 = inttoptr i64 %3 to ptr
  %5 = getelementptr inbounds nuw i8, ptr %4, i64 8
  %6 = load i8, ptr %5, align 1
  %.not = icmp slt i8 %6, -64
  br i1 %.not, label %9, label %7

7:                                                ; preds = %1
  %8 = getelementptr inbounds nuw i8, ptr %0, i64 28
  store i8 1, ptr %8, align 4
  br label %84

9:                                                ; preds = %1
  %10 = getelementptr inbounds nuw i8, ptr %4, i64 6
  %11 = load i8, ptr %10, align 1
  %12 = lshr i8 %11, 4
  switch i8 %12, label %82 [
    i8 1, label %13
    i8 7, label %52
  ]

13:                                               ; preds = %9
  %14 = load i8, ptr %4, align 1
  %15 = zext i8 %14 to i64
  %16 = shl nuw nsw i64 %15, 24
  %17 = getelementptr inbounds nuw i8, ptr %4, i64 1
  %18 = load i8, ptr %17, align 1
  %19 = zext i8 %18 to i64
  %20 = shl nuw nsw i64 %19, 16
  %21 = or disjoint i64 %20, %16
  %22 = getelementptr inbounds nuw i8, ptr %4, i64 2
  %23 = load i8, ptr %22, align 1
  %24 = zext i8 %23 to i64
  %25 = shl nuw nsw i64 %24, 8
  %26 = or disjoint i64 %21, %25
  %27 = getelementptr inbounds nuw i8, ptr %4, i64 3
  %28 = load i8, ptr %27, align 1
  %29 = zext i8 %28 to i64
  %30 = or disjoint i64 %26, %29
  %31 = getelementptr inbounds nuw i8, ptr %4, i64 4
  %32 = load i8, ptr %31, align 1
  %33 = zext i8 %32 to i64
  %34 = shl nuw nsw i64 %33, 40
  %35 = or disjoint i64 %30, %34
  %36 = getelementptr inbounds nuw i8, ptr %4, i64 5
  %37 = load i8, ptr %36, align 1
  %38 = zext i8 %37 to i64
  %39 = shl nuw nsw i64 %38, 32
  %40 = or disjoint i64 %35, %39
  %41 = and i8 %11, 15
  %42 = zext nneg i8 %41 to i64
  %43 = shl nuw nsw i64 %42, 56
  %44 = add nuw nsw i64 %40, %43
  %45 = getelementptr inbounds nuw i8, ptr %4, i64 7
  %46 = load i8, ptr %45, align 1
  %47 = zext i8 %46 to i64
  %48 = shl nuw nsw i64 %47, 48
  %49 = add nuw nsw i64 %44, %48
  %50 = udiv i64 %49, 10
  %51 = add nsw i64 %50, -13165977600000000
  br label %84

52:                                               ; preds = %9
  %53 = getelementptr inbounds nuw i8, ptr %4, i64 5
  %54 = load i8, ptr %53, align 1
  %55 = zext i8 %54 to i64
  %56 = getelementptr inbounds nuw i8, ptr %4, i64 4
  %57 = load i8, ptr %56, align 1
  %58 = zext i8 %57 to i64
  %59 = shl nuw nsw i64 %58, 8
  %60 = or disjoint i64 %59, %55
  %61 = getelementptr inbounds nuw i8, ptr %4, i64 3
  %62 = load i8, ptr %61, align 1
  %63 = zext i8 %62 to i64
  %64 = shl nuw nsw i64 %63, 16
  %65 = or disjoint i64 %60, %64
  %66 = getelementptr inbounds nuw i8, ptr %4, i64 2
  %67 = load i8, ptr %66, align 1
  %68 = zext i8 %67 to i64
  %69 = shl nuw nsw i64 %68, 24
  %70 = or disjoint i64 %65, %69
  %71 = getelementptr inbounds nuw i8, ptr %4, i64 1
  %72 = load i8, ptr %71, align 1
  %73 = zext i8 %72 to i64
  %74 = shl nuw nsw i64 %73, 32
  %75 = or disjoint i64 %70, %74
  %76 = load i8, ptr %4, align 1
  %77 = zext i8 %76 to i64
  %78 = shl nuw nsw i64 %77, 40
  %79 = or disjoint i64 %75, %78
  %80 = mul nuw nsw i64 %79, 1000
  %81 = add nsw i64 %80, -946684800000000
  br label %84

82:                                               ; preds = %9
  %83 = getelementptr inbounds nuw i8, ptr %0, i64 28
  store i8 1, ptr %83, align 4
  br label %84

84:                                               ; preds = %82, %52, %13, %7
  %.0 = phi i64 [ 0, %7 ], [ %51, %13 ], [ %81, %52 ], [ 0, %82 ]
  ret i64 %.0
}